target datalayout = "e-m:e-p270:32:32-p271:32:32-p272:64:64-i64:64-i128:128-f80:128-n8:16:32:64-S128"
target triple = "x86_64-pc-linux-gnu"

%struct.CreateStmt = type { i32, ptr, ptr, ptr, ptr, ptr, ptr, ptr, ptr, ptr, i32, ptr, ptr, i8 }
%struct.CreateForeignTableStmt = type { %struct.CreateStmt, ptr, ptr }

; Function Attrs: nounwind uwtable
define internal zeroext i1 @_equalCreateForeignTableStmt(ptr noundef %0, ptr noundef %1) #0 {
  %3 = alloca i1, align 1
  %4 = alloca ptr, align 8
  %5 = alloca ptr, align 8
  store ptr %0, ptr %4, align 8
  store ptr %1, ptr %5, align 8
  br label %6

6:                                                ; preds = %2
  %7 = load ptr, ptr %4, align 8
  %8 = getelementptr inbounds nuw %struct.CreateForeignTableStmt, ptr %7, i32 0, i32 0
  %9 = getelementptr inbounds nuw %struct.CreateStmt, ptr %8, i32 0, i32 1
  %10 = load ptr, ptr %9, align 8
  %11 = load ptr, ptr %5, align 8
  %12 = getelementptr inbounds nuw %struct.CreateForeignTableStmt, ptr %11, i32 0, i32 0
  %13 = getelementptr inbounds nuw %struct.CreateStmt, ptr %12, i32 0, i32 1
  %14 = load ptr, ptr %13, align 8
  %15 = call zeroext i1 @equal(ptr noundef %10, ptr noundef %14)
  br i1 %15, label %17, label %16

16:                                               ; preds = %6
  store i1 false, ptr %3, align 1
  br label %266

17:                                               ; preds = %6
  br label %18

18:                                               ; preds = %17
  br label %19

19:                                               ; preds = %18
  %20 = load ptr, ptr %4, align 8
  %21 = getelementptr inbounds nuw %struct.CreateForeignTableStmt, ptr %20, i32 0, i32 0
  %22 = getelementptr inbounds nuw %struct.CreateStmt, ptr %21, i32 0, i32 2
  %23 = load ptr, ptr %22, align 8
  %24 = load ptr, ptr %5, align 8
  %25 = getelementptr inbounds nuw %struct.CreateForeignTableStmt, ptr %24, i32 0, i32 0
  %26 = getelementptr inbounds nuw %struct.CreateStmt, ptr %25, i32 0, i32 2
  %27 = load ptr, ptr %26, align 8
  %28 = call zeroext i1 @equal(ptr noundef %23, ptr noundef %27)
  br i1 %28, label %30, label %29

29:                                               ; preds = %19
  store i1 false, ptr %3, align 1
  br label %266

30:                                               ; preds = %19
  br label %31

31:                                               ; preds = %30
  br label %32

32:                                               ; preds = %31
  %33 = load ptr, ptr %4, align 8
  %34 = getelementptr inbounds nuw %struct.CreateForeignTableStmt, ptr %33, i32 0, i32 0
  %35 = getelementptr inbounds nuw %struct.CreateStmt, ptr %34, i32 0, i32 3
  %36 = load ptr, ptr %35, align 8
  %37 = load ptr, ptr %5, align 8
  %38 = getelementptr inbounds nuw %struct.CreateForeignTableStmt, ptr %37, i32 0, i32 0
  %39 = getelementptr inbounds nuw %struct.CreateStmt, ptr %38, i32 0, i32 3
  %40 = load ptr, ptr %39, align 8
  %41 = call zeroext i1 @equal(ptr noundef %36, ptr noundef %40)
  br i1 %41, label %43, label %42

42:                                               ; preds = %32
  store i1 false, ptr %3, align 1
  br label %266

43:                                               ; preds = %32
  br label %44

44:                                               ; preds = %43
  br label %45

45:                                               ; preds = %44
  %46 = load ptr, ptr %4, align 8
  %47 = getelementptr inbounds nuw %struct.CreateForeignTableStmt, ptr %46, i32 0, i32 0
  %48 = getelementptr inbounds nuw %struct.CreateStmt, ptr %47, i32 0, i32 4
  %49 = load ptr, ptr %48, align 8
  %50 = load ptr, ptr %5, align 8
  %51 = getelementptr inbounds nuw %struct.CreateForeignTableStmt, ptr %50, i32 0, i32 0
  %52 = getelementptr inbounds nuw %struct.CreateStmt, ptr %51, i32 0, i32 4
  %53 = load ptr, ptr %52, align 8
  %54 = call zeroext i1 @equal(ptr noundef %49, ptr noundef %53)
  br i1 %54, label %56, label %55

55:                                               ; preds = %45
  store i1 false, ptr %3, align 1
  br label %266

56:                                               ; preds = %45
  br label %57

57:                                               ; preds = %56
  br label %58

58:                                               ; preds = %57
  %59 = load ptr, ptr %4, align 8
  %60 = getelementptr inbounds nuw %struct.CreateForeignTableStmt, ptr %59, i32 0, i32 0
  %61 = getelementptr inbounds nuw %struct.CreateStmt, ptr %60, i32 0, i32 5
  %62 = load ptr, ptr %61, align 8
  %63 = load ptr, ptr %5, align 8
  %64 = getelementptr inbounds nuw %struct.CreateForeignTableStmt, ptr %63, i32 0, i32 0
  %65 = getelementptr inbounds nuw %struct.CreateStmt, ptr %64, i32 0, i32 5
  %66 = load ptr, ptr %65, align 8
  %67 = call zeroext i1 @equal(ptr noundef %62, ptr noundef %66)
  br i1 %67, label %69, label %68

68:                                               ; preds = %58
  store i1 false, ptr %3, align 1
  br label %266

69:                                               ; preds = %58
  br label %70

70:                                               ; preds = %69
  br label %71

71:                                               ; preds = %70
  %72 = load ptr, ptr %4, align 8
  %73 = getelementptr inbounds nuw %struct.CreateForeignTableStmt, ptr %72, i32 0, i32 0
  %74 = getelementptr inbounds nuw %struct.CreateStmt, ptr %73, i32 0, i32 6
  %75 = load ptr, ptr %74, align 8
  %76 = load ptr, ptr %5, align 8
  %77 = getelementptr inbounds nuw %struct.CreateForeignTableStmt, ptr %76, i32 0, i32 0
  %78 = getelementptr inbounds nuw %struct.CreateStmt, ptr %77, i32 0, i32 6
  %79 = load ptr, ptr %78, align 8
  %80 = call zeroext i1 @equal(ptr noundef %75, ptr noundef %79)
  br i1 %80, label %82, label %81

81:                                               ; preds = %71
  store i1 false, ptr %3, align 1
  br label %266

82:                                               ; preds = %71
  br label %83

83:                                               ; preds = %82
  br label %84

84:                                               ; preds = %83
  %85 = load ptr, ptr %4, align 8
  %86 = getelementptr inbounds nuw %struct.CreateForeignTableStmt, ptr %85, i32 0, i32 0
  %87 = getelementptr inbounds nuw %struct.CreateStmt, ptr %86, i32 0, i32 7
  %88 = load ptr, ptr %87, align 8
  %89 = load ptr, ptr %5, align 8
  %90 = getelementptr inbounds nuw %struct.CreateForeignTableStmt, ptr %89, i32 0, i32 0
  %91 = getelementptr inbounds nuw %struct.CreateStmt, ptr %90, i32 0, i32 7
  %92 = load ptr, ptr %91, align 8
  %93 = call zeroext i1 @equal(ptr noundef %88, ptr noundef %92)
  br i1 %93, label %95, label %94

94:                                               ; preds = %84
  store i1 false, ptr %3, align 1
  br label %266

95:                                               ; preds = %84
  br label %96

96:                                               ; preds = %95
  br label %97

97:                                               ; preds = %96
  %98 = load ptr, ptr %4, align 8
  %99 = getelementptr inbounds nuw %struct.CreateForeignTableStmt, ptr %98, i32 0, i32 0
  %100 = getelementptr inbounds nuw %struct.CreateStmt, ptr %99, i32 0, i32 8
  %101 = load ptr, ptr %100, align 8
  %102 = load ptr, ptr %5, align 8
  %103 = getelementptr inbounds nuw %struct.CreateForeignTableStmt, ptr %102, i32 0, i32 0
  %104 = getelementptr inbounds nuw %struct.CreateStmt, ptr %103, i32 0, i32 8
  %105 = load ptr, ptr %104, align 8
  %106 = call zeroext i1 @equal(ptr noundef %101, ptr noundef %105)
  br i1 %106, label %108, label %107

107:                                              ; preds = %97
  store i1 false, ptr %3, align 1
  br label %266

108:                                              ; preds = %97
  br label %109

109:                                              ; preds = %108
  br label %110

110:                                              ; preds = %109
  %111 = load ptr, ptr %4, align 8
  %112 = getelementptr inbounds nuw %struct.CreateForeignTableStmt, ptr %111, i32 0, i32 0
  %113 = getelementptr inbounds nuw %struct.CreateStmt, ptr %112, i32 0, i32 9
  %114 = load ptr, ptr %113, align 8
  %115 = load ptr, ptr %5, align 8
  %116 = getelementptr inbounds nuw %struct.CreateForeignTableStmt, ptr %115, i32 0, i32 0
  %117 = getelementptr inbounds nuw %struct.CreateStmt, ptr %116, i32 0, i32 9
  %118 = load ptr, ptr %117, align 8
  %119 = call zeroext i1 @equal(ptr noundef %114, ptr noundef %118)
  br i1 %119, label %121, label %120

120:                                              ; preds = %110
  store i1 false, ptr %3, align 1
  br label %266

121:                                              ; preds = %110
  br label %122

122:                                              ; preds = %121
  br label %123

123:                                              ; preds = %122
  %124 = load ptr, ptr %4, align 8
  %125 = getelementptr inbounds nuw %struct.CreateForeignTableStmt, ptr %124, i32 0, i32 0
  %126 = getelementptr inbounds nuw %struct.CreateStmt, ptr %125, i32 0, i32 10
  %127 = load i32, ptr %126, align 8
  %128 = load ptr, ptr %5, align 8
  %129 = getelementptr inbounds nuw %struct.CreateForeignTableStmt, ptr %128, i32 0, i32 0
  %130 = getelementptr inbounds nuw %struct.CreateStmt, ptr %129, i32 0, i32 10
  %131 = load i32, ptr %130, align 8
  %132 = icmp ne i32 %127, %131
  br i1 %132, label %133, label %134

133:                                              ; preds = %123
  store i1 false, ptr %3, align 1
  br label %266

134:                                              ; preds = %123
  br label %135

135:                                              ; preds = %134
  br label %136

136:                                              ; preds = %135
  %137 = load ptr, ptr %4, align 8
  %138 = getelementptr inbounds nuw %struct.CreateForeignTableStmt, ptr %137, i32 0, i32 0
  %139 = getelementptr inbounds nuw %struct.CreateStmt, ptr %138, i32 0, i32 11
  %140 = load ptr, ptr %139, align 8
  %141 = icmp ne ptr %140, null
  br i1 %141, label %142, label %159

142:                                              ; preds = %136
  %143 = load ptr, ptr %5, align 8
  %144 = getelementptr inbounds nuw %struct.CreateForeignTableStmt, ptr %143, i32 0, i32 0
  %145 = getelementptr inbounds nuw %struct.CreateStmt, ptr %144, i32 0, i32 11
  %146 = load ptr, ptr %145, align 8
  %147 = icmp ne ptr %146, null
  br i1 %147, label %148, label %159

148:                                              ; preds = %142
  %149 = load ptr, ptr %4, align 8
  %150 = getelementptr inbounds nuw %struct.CreateForeignTableStmt, ptr %149, i32 0, i32 0
  %151 = getelementptr inbounds nuw %struct.CreateStmt, ptr %150, i32 0, i32 11
  %152 = load ptr, ptr %151, align 8
  %153 = load ptr, ptr %5, align 8
  %154 = getelementptr inbounds nuw %struct.CreateForeignTableStmt, ptr %153, i32 0, i32 0
  %155 = getelementptr inbounds nuw %struct.CreateStmt, ptr %154, i32 0, i32 11
  %156 = load ptr, ptr %155, align 8
  %157 = call i32 @strcmp(ptr noundef %152, ptr noundef %156) #8
  %158 = icmp eq i32 %157, 0
  br i1 %158, label %170, label %169

159:                                              ; preds = %142, %136
  %160 = load ptr, ptr %4, align 8
  %161 = getelementptr inbounds nuw %struct.CreateForeignTableStmt, ptr %160, i32 0, i32 0
  %162 = getelementptr inbounds nuw %struct.CreateStmt, ptr %161, i32 0, i32 11
  %163 = load ptr, ptr %162, align 8
  %164 = load ptr, ptr %5, align 8
  %165 = getelementptr inbounds nuw %struct.CreateForeignTableStmt, ptr %164, i32 0, i32 0
  %166 = getelementptr inbounds nuw %struct.CreateStmt, ptr %165, i32 0, i32 11
  %167 = load ptr, ptr %166, align 8
  %168 = icmp eq ptr %163, %167
  br i1 %168, label %170, label %169

169:                                              ; preds = %159, %148
  store i1 false, ptr %3, align 1
  br label %266

170:                                              ; preds = %159, %148
  br label %171

171:                                              ; preds = %170
  br label %172

172:                                              ; preds = %171
  %173 = load ptr, ptr %4, align 8
  %174 = getelementptr inbounds nuw %struct.CreateForeignTableStmt, ptr %173, i32 0, i32 0
  %175 = getelementptr inbounds nuw %struct.CreateStmt, ptr %174, i32 0, i32 12
  %176 = load ptr, ptr %175, align 8
  %177 = icmp ne ptr %176, null
  br i1 %177, label %178, label %195

178:                                              ; preds = %172
  %179 = load ptr, ptr %5, align 8
  %180 = getelementptr inbounds nuw %struct.CreateForeignTableStmt, ptr %179, i32 0, i32 0
  %181 = getelementptr inbounds nuw %struct.CreateStmt, ptr %180, i32 0, i32 12
  %182 = load ptr, ptr %181, align 8
  %183 = icmp ne ptr %182, null
  br i1 %183, label %184, label %195

184:                                              ; preds = %178
  %185 = load ptr, ptr %4, align 8
  %186 = getelementptr inbounds nuw %struct.CreateForeignTableStmt, ptr %185, i32 0, i32 0
  %187 = getelementptr inbounds nuw %struct.CreateStmt, ptr %186, i32 0, i32 12
  %188 = load ptr, ptr %187, align 8
  %189 = load ptr, ptr %5, align 8
  %190 = getelementptr inbounds nuw %struct.CreateForeignTableStmt, ptr %189, i32 0, i32 0
  %191 = getelementptr inbounds nuw %struct.CreateStmt, ptr %190, i32 0, i32 12
  %192 = load ptr, ptr %191, align 8
  %193 = call i32 @strcmp(ptr noundef %188, ptr noundef %192) #8
  %194 = icmp eq i32 %193, 0
  br i1 %194, label %206, label %205

195:                                              ; preds = %178, %172
  %196 = load ptr, ptr %4, align 8
  %197 = getelementptr inbounds nuw %struct.CreateForeignTableStmt, ptr %196, i32 0, i32 0
  %198 = getelementptr inbounds nuw %struct.CreateStmt, ptr %197, i32 0, i32 12
  %199 = load ptr, ptr %198, align 8
  %200 = load ptr, ptr %5, align 8
  %201 = getelementptr inbounds nuw %struct.CreateForeignTableStmt, ptr %200, i32 0, i32 0
  %202 = getelementptr inbounds nuw %struct.CreateStmt, ptr %201, i32 0, i32 12
  %203 = load ptr, ptr %202, align 8
  %204 = icmp eq ptr %199, %203
  br i1 %204, label %206, label %205

205:                                              ; preds = %195, %184
  store i1 false, ptr %3, align 1
  br label %266

206:                                              ; preds = %195, %184
  br label %207

207:                                              ; preds = %206
  br label %208

208:                                              ; preds = %207
  %209 = load ptr, ptr %4, align 8
  %210 = getelementptr inbounds nuw %struct.CreateForeignTableStmt, ptr %209, i32 0, i32 0
  %211 = getelementptr inbounds nuw %struct.CreateStmt, ptr %210, i32 0, i32 13
  %212 = load i8, ptr %211, align 8, !range !4, !noundef !5
  %213 = trunc i8 %212 to i1
  %214 = zext i1 %213 to i32
  %215 = load ptr, ptr %5, align 8
  %216 = getelementptr inbounds nuw %struct.CreateForeignTableStmt, ptr %215, i32 0, i32 0
  %217 = getelementptr inbounds nuw %struct.CreateStmt, ptr %216, i32 0, i32 13
  %218 = load i8, ptr %217, align 8, !range !4, !noundef !5
  %219 = trunc i8 %218 to i1
  %220 = zext i1 %219 to i32
  %221 = icmp ne i32 %214, %220
  br i1 %221, label %222, label %223

222:                                              ; preds = %208
  store i1 false, ptr %3, align 1
  br label %266

223:                                              ; preds = %208
  br label %224

224:                                              ; preds = %223
  br label %225

225:                                              ; preds = %224
  %226 = load ptr, ptr %4, align 8
  %227 = getelementptr inbounds nuw %struct.CreateForeignTableStmt, ptr %226, i32 0, i32 1
  %228 = load ptr, ptr %227, align 8
  %229 = icmp ne ptr %228, null
  br i1 %229, label %230, label %244

230:                                              ; preds = %225
  %231 = load ptr, ptr %5, align 8
  %232 = getelementptr inbounds nuw %struct.CreateForeignTableStmt, ptr %231, i32 0, i32 1
  %233 = load ptr, ptr %232, align 8
  %234 = icmp ne ptr %233, null
  br i1 %234, label %235, label %244

235:                                              ; preds = %230
  %236 = load ptr, ptr %4, align 8
  %237 = getelementptr inbounds nuw %struct.CreateForeignTableStmt, ptr %236, i32 0, i32 1
  %238 = load ptr, ptr %237, align 8
  %239 = load ptr, ptr %5, align 8
  %240 = getelementptr inbounds nuw %struct.CreateForeignTableStmt, ptr %239, i32 0, i32 1
  %241 = load ptr, ptr %240, align 8
  %242 = call i32 @strcmp(ptr noundef %238, ptr noundef %241) #8
  %243 = icmp eq i32 %242, 0
  br i1 %243, label %253, label %252

244:                                              ; preds = %230, %225
  %245 = load ptr, ptr %4, align 8
  %246 = getelementptr inbounds nuw %struct.CreateForeignTableStmt, ptr %245, i32 0, i32 1
  %247 = load ptr, ptr %246, align 8
  %248 = load ptr, ptr %5, align 8
  %249 = getelementptr inbounds nuw %struct.CreateForeignTableStmt, ptr %248, i32 0, i32 1
  %250 = load ptr, ptr %249, align 8
  %251 = icmp eq ptr %247, %250
  br i1 %251, label %253, label %252

252:                                              ; preds = %244, %235
  store i1 false, ptr %3, align 1
  br label %266

253:                                              ; preds = %244, %235
  br label %254

254:                                              ; preds = %253
  br label %255

255:                                              ; preds = %254
  %256 = load ptr, ptr %4, align 8
  %257 = getelementptr inbounds nuw %struct.CreateForeignTableStmt, ptr %256, i32 0, i32 2
  %258 = load ptr, ptr %257, align 8
  %259 = load ptr, ptr %5, align 8
  %260 = getelementptr inbounds nuw %struct.CreateForeignTableStmt, ptr %259, i32 0, i32 2
  %261 = load ptr, ptr %260, align 8
  %262 = call zeroext i1 @equal(ptr noundef %258, ptr noundef %261)
  br i1 %262, label %264, label %263

263:                                              ; preds = %255
  store i1 false, ptr %3, align 1
  br label %266

264:                                              ; preds = %255
  br label %265

265:                                              ; preds = %264
  store i1 true, ptr %3, align 1
  br label %266

266:                                              ; preds = %265, %263, %252, %222, %205, %169, %133, %120, %107, %94, %81, %68, %55, %42, %29, %16
  %267 = load i1, ptr %3, align 1
  ret i1 %267
}